target datalayout = "e-m:e-p270:32:32-p271:32:32-p272:64:64-i64:64-i128:128-f80:128-n8:16:32:64-S128"
target triple = "x86_64-pc-linux-gnu"

%"class.llvm::APInt" = type <{ %union.anon, i32, [4 x i8] }>
%union.anon = type { i64 }
%"struct.llvm::SizeOffsetAPInt" = type { %"struct.llvm::SizeOffsetType" }
%"struct.llvm::SizeOffsetType" = type { %"class.llvm::APInt", %"class.llvm::APInt" }

; Function Attrs: mustprogress nounwind uwtable
define linkonce_odr hidden void @_ZN4llvm5APIntC2Ev(ptr noundef nonnull align 8 dereferenceable(12) %0) unnamed_addr #1 comdat align 2 {
  %2 = alloca ptr, align 8
  store ptr %0, ptr %2, align 8
  %3 = load ptr, ptr %2, align 8
  %4 = getelementptr inbounds nuw %"class.llvm::APInt", ptr %3, i32 0, i32 1
  store i32 1, ptr %4, align 8
  %5 = getelementptr inbounds nuw %"class.llvm::APInt", ptr %3, i32 0, i32 0
  store i64 0, ptr %5, align 8
  ret void
}

; Function Attrs: mustprogress nounwind uwtable
define linkonce_odr hidden void @_ZN4llvm14SizeOffsetTypeINS_5APIntENS_15SizeOffsetAPIntEEC2Ev(ptr noundef nonnull align 8 dereferenceable(32) %0) unnamed_addr #1 comdat align 2 {
  %2 = alloca ptr, align 8
  store ptr %0, ptr %2, align 8
  %3 = load ptr, ptr %2, align 8
  %4 = getelementptr inbounds nuw %"struct.llvm::SizeOffsetType", ptr %3, i32 0, i32 0
  call void @_ZN4llvm5APIntC2Ev(ptr noundef nonnull align 8 dereferenceable(12) %4)
  %5 = getelementptr inbounds nuw %"struct.llvm::SizeOffsetType", ptr %3, i32 0, i32 1
  call void @_ZN4llvm5APIntC2Ev(ptr noundef nonnull align 8 dereferenceable(12) %5)
  ret void
}

; Function Attrs: mustprogress nounwind uwtable
define linkonce_odr hidden void @_ZN4llvm15SizeOffsetAPIntC2Ev(ptr noundef nonnull align 8 dereferenceable(32) %0) unnamed_addr #1 comdat align 2 {
  %2 = alloca ptr, align 8
  store ptr %0, ptr %2, align 8
  %3 = load ptr, ptr %2, align 8
  call void @_ZN4llvm14SizeOffsetTypeINS_5APIntENS_15SizeOffsetAPIntEEC2Ev(ptr noundef nonnull align 8 dereferenceable(32) %3)
  ret void
}

; Function Attrs: mustprogress nounwind uwtable
define linkonce_odr hidden void @_ZN4llvm23ObjectSizeOffsetVisitor7unknownEv(ptr dead_on_unwind noalias writable sret(%"struct.llvm::SizeOffsetAPInt") align 8 %0) #1 comdat align 2 {
  %2 = alloca ptr, align 8
  store ptr %0, ptr %2, align 8
  call void @llvm.memset.p0.i64(ptr align 8 %0, i8 0, i64 32, i1 false)
  call void @_ZN4llvm15SizeOffsetAPIntC2Ev(ptr noundef nonnull align 8 dereferenceable(32) %0)
  ret void
}

; Function Attrs: mustprogress nounwind uwtable
define dso_local void @_ZN4llvm23ObjectSizeOffsetVisitor17visitIntToPtrInstERNS_12IntToPtrInstE(ptr dead_on_unwind noalias writable sret(%"struct.llvm::SizeOffsetAPInt") align 8 %0, ptr noundef nonnull align 8 dereferenceable(388) %1, ptr noundef nonnull align 8 dereferenceable(72) %2) #1 align 2 {
  %4 = alloca ptr, align 8
  %5 = alloca ptr, align 8
  %6 = alloca ptr, align 8
  store ptr %0, ptr %4, align 8
  store ptr %1, ptr %5, align 8
  store ptr %2, ptr %6, align 8
  call void @_ZN4llvm23ObjectSizeOffsetVisitor7unknownEv(ptr dead_on_unwind writable sret(%"struct.llvm::SizeOffsetAPInt") align 8 %0)
  ret void
}