; Function Attrs: mustprogress nofree norecurse nosync nounwind willreturn memory(argmem: write) uwtable
define dso_local void @_ZN4llvm23ObjectSizeOffsetVisitor17visitIntToPtrInstERNS_12IntToPtrInstE(ptr dead_on_unwind noalias nocapture writable writeonly sret(%"struct.llvm::SizeOffsetAPInt") align 8 %0, ptr nocapture noundef nonnull readnone align 8 dereferenceable(388) %1, ptr nocapture noundef nonnull readnone align 8 dereferenceable(72) %2) local_unnamed_addr #8 align 2 {
  %4 = getelementptr inbounds i8, ptr %0, i64 8
  tail call void @llvm.memset.p0.i64(ptr noundef nonnull align 8 dereferenceable(32) %4, i8 0, i64 24, i1 false), !alias.scope !725
  store i32 1, ptr %4, align 8, !alias.scope !725
  store i64 0, ptr %0, align 8, !alias.scope !725
  %5 = getelementptr inbounds i8, ptr %0, i64 24
  store i32 1, ptr %5, align 8, !alias.scope !725
  ret void
}